; Function Attrs: nounwind uwtable
define internal fastcc i32 @ftp_state_acct_resp(ptr noundef %0, i32 noundef range(i32 1, 0) %1) unnamed_addr #0 {
  %.not = icmp eq i32 %1, 230
  br i1 %.not, label %4, label %3

3:                                                ; preds = %2
  tail call void (ptr, ptr, ...) @Curl_failf(ptr noundef %0, ptr noundef nonnull @.str.71, i32 noundef %1) #10
  br label %6

4:                                                ; preds = %2
  %5 = tail call fastcc i32 @ftp_state_loggedin(ptr noundef %0)
  br label %6

6:                                                ; preds = %4, %3
  %.0 = phi i32 [ 11, %3 ], [ %5, %4 ]
  ret i32 %.0
}